#include <math.h>
#include <stdio.h>
#include <stdlib.h>
#include <string.h>


int main(int argc, char* argv[])
{	char a[1000],b[100],e[100];

	int n,i,j=0;
	scanf("%d",&n);
	for(i=0;i<n;i++){
		scanf("%s",a);
		for(j=0;a[j]!='\0';j++){
			if(a[j]=='A')printf("T");
			if(a[j]=='T')printf("A");
			if(a[j]=='G')printf("C");
			if(a[j]=='C')printf("G");
		}
		printf("\n");
	}
	
	return 0;
}
