; ModuleID = '33/26.c'
source_filename = "33/26.c"
target datalayout = "e-m:e-p270:32:32-p271:32:32-p272:64:64-i64:64-f80:128-n8:16:32:64-S128"
target triple = "x86_64-pc-linux-gnu"

@.str = private unnamed_addr constant [3 x i8] c"%d\00", align 1
@.str.1 = private unnamed_addr constant [3 x i8] c"%s\00", align 1
@.str.2 = private unnamed_addr constant [2 x i8] c"T\00", align 1
@.str.3 = private unnamed_addr constant [2 x i8] c"A\00", align 1
@.str.4 = private unnamed_addr constant [2 x i8] c"C\00", align 1
@.str.5 = private unnamed_addr constant [2 x i8] c"G\00", align 1
@.str.6 = private unnamed_addr constant [2 x i8] c"\0A\00", align 1

; Function Attrs: noinline nounwind uwtable
define dso_local i32 @main(i32 %0, i8** %1) #0 {
  %3 = alloca i32, align 4
  %4 = alloca i32, align 4
  %5 = alloca i8**, align 8
  %6 = alloca [1000 x i8], align 16
  %7 = alloca [100 x i8], align 16
  %8 = alloca [100 x i8], align 16
  %9 = alloca i32, align 4
  %10 = alloca i32, align 4
  %11 = alloca i32, align 4
  store i32 0, i32* %3, align 4
  store i32 %0, i32* %4, align 4
  store i8** %1, i8*** %5, align 8
  store i32 0, i32* %11, align 4
  %12 = call i32 (i8*, ...) @__isoc99_scanf(i8* getelementptr inbounds ([3 x i8], [3 x i8]* @.str, i64 0, i64 0), i32* %9)
  store i32 0, i32* %10, align 4
  br label %13

13:                                               ; preds = %69, %2
  %14 = load i32, i32* %10, align 4
  %15 = load i32, i32* %9, align 4
  %16 = icmp slt i32 %14, %15
  br i1 %16, label %17, label %72

17:                                               ; preds = %13
  %18 = getelementptr inbounds [1000 x i8], [1000 x i8]* %6, i64 0, i64 0
  %19 = call i32 (i8*, ...) @__isoc99_scanf(i8* getelementptr inbounds ([3 x i8], [3 x i8]* @.str.1, i64 0, i64 0), i8* %18)
  store i32 0, i32* %11, align 4
  br label %20

20:                                               ; preds = %64, %17
  %21 = load i32, i32* %11, align 4
  %22 = sext i32 %21 to i64
  %23 = getelementptr inbounds [1000 x i8], [1000 x i8]* %6, i64 0, i64 %22
  %24 = load i8, i8* %23, align 1
  %25 = sext i8 %24 to i32
  %26 = icmp ne i32 %25, 0
  br i1 %26, label %27, label %67

27:                                               ; preds = %20
  %28 = load i32, i32* %11, align 4
  %29 = sext i32 %28 to i64
  %30 = getelementptr inbounds [1000 x i8], [1000 x i8]* %6, i64 0, i64 %29
  %31 = load i8, i8* %30, align 1
  %32 = sext i8 %31 to i32
  %33 = icmp eq i32 %32, 65
  br i1 %33, label %34, label %36

34:                                               ; preds = %27
  %35 = call i32 (i8*, ...) @printf(i8* getelementptr inbounds ([2 x i8], [2 x i8]* @.str.2, i64 0, i64 0))
  br label %36

36:                                               ; preds = %34, %27
  %37 = load i32, i32* %11, align 4
  %38 = sext i32 %37 to i64
  %39 = getelementptr inbounds [1000 x i8], [1000 x i8]* %6, i64 0, i64 %38
  %40 = load i8, i8* %39, align 1
  %41 = sext i8 %40 to i32
  %42 = icmp eq i32 %41, 84
  br i1 %42, label %43, label %45

43:                                               ; preds = %36
  %44 = call i32 (i8*, ...) @printf(i8* getelementptr inbounds ([2 x i8], [2 x i8]* @.str.3, i64 0, i64 0))
  br label %45

45:                                               ; preds = %43, %36
  %46 = load i32, i32* %11, align 4
  %47 = sext i32 %46 to i64
  %48 = getelementptr inbounds [1000 x i8], [1000 x i8]* %6, i64 0, i64 %47
  %49 = load i8, i8* %48, align 1
  %50 = sext i8 %49 to i32
  %51 = icmp eq i32 %50, 71
  br i1 %51, label %52, label %54

52:                                               ; preds = %45
  %53 = call i32 (i8*, ...) @printf(i8* getelementptr inbounds ([2 x i8], [2 x i8]* @.str.4, i64 0, i64 0))
  br label %54

54:                                               ; preds = %52, %45
  %55 = load i32, i32* %11, align 4
  %56 = sext i32 %55 to i64
  %57 = getelementptr inbounds [1000 x i8], [1000 x i8]* %6, i64 0, i64 %56
  %58 = load i8, i8* %57, align 1
  %59 = sext i8 %58 to i32
  %60 = icmp eq i32 %59, 67
  br i1 %60, label %61, label %63

61:                                               ; preds = %54
  %62 = call i32 (i8*, ...) @printf(i8* getelementptr inbounds ([2 x i8], [2 x i8]* @.str.5, i64 0, i64 0))
  br label %63

63:                                               ; preds = %61, %54
  br label %64

64:                                               ; preds = %63
  %65 = load i32, i32* %11, align 4
  %66 = add nsw i32 %65, 1
  store i32 %66, i32* %11, align 4
  br label %20

67:                                               ; preds = %20
  %68 = call i32 (i8*, ...) @printf(i8* getelementptr inbounds ([2 x i8], [2 x i8]* @.str.6, i64 0, i64 0))
  br label %69

69:                                               ; preds = %67
  %70 = load i32, i32* %10, align 4
  %71 = add nsw i32 %70, 1
  store i32 %71, i32* %10, align 4
  br label %13

72:                                               ; preds = %13
  ret i32 0
}

declare dso_local i32 @__isoc99_scanf(i8*, ...) #1

declare dso_local i32 @printf(i8*, ...) #1


!llvm.module.flags = !{!0}
!llvm.ident = !{!1}

!0 = !{i32 1, !"wchar_size", i32 4}
!1 = !{!"clang version 10.0.0-4ubuntu1 "}
